; Function Attrs: nounwind uwtable
define dso_local double @hdr_stddev(ptr noundef %h) local_unnamed_addr #6 {
entry:
  %iter.i = alloca %struct.hdr_iter, align 8
  %iter = alloca %struct.hdr_iter, align 8
  call void @llvm.lifetime.start.p0(i64 128, ptr nonnull %iter.i)
  store ptr %h, ptr %iter.i, align 8
  %counts_index.i.i = getelementptr inbounds i8, ptr %iter.i, i64 8
  %total_count.i.i = getelementptr inbounds i8, ptr %h, i64 88
  %0 = load i64, ptr %total_count.i.i, align 8
  %total_count2.i.i = getelementptr inbounds i8, ptr %iter.i, i64 16
  store i64 %0, ptr %total_count2.i.i, align 8
  %count.i.i = getelementptr inbounds i8, ptr %iter.i, i64 24
  %value_iterated_from.i.i = getelementptr inbounds i8, ptr %iter.i, i64 72
  %_next_fp.i.i = getelementptr inbounds i8, ptr %iter.i, i64 120
  store ptr @all_values_iter_next, ptr %_next_fp.i.i, align 8
  store i32 0, ptr %counts_index.i.i, align 8
  %1 = getelementptr i8, ptr %h, i64 80
  %iter.val.val.i = load i32, ptr %1, align 8
  %cmp.i.i = icmp sgt i32 %iter.val.val.i, 0
  br i1 %cmp.i.i, label %if.end.i18, label %hdr_mean.exit

if.end.i18:                                       ; preds = %entry
  %normalizing_index_offset.i.i.i = getelementptr inbounds i8, ptr %h, i64 64
  %2 = load i32, ptr %normalizing_index_offset.i.i.i, align 8
  %cmp.i.i.i = icmp eq i32 %2, 0
  br i1 %cmp.i.i.i, label %while.body.lr.ph.i, label %if.end.i.i.i

if.end.i.i.i:                                     ; preds = %if.end.i18
  %sub.i.i.i = sub nsw i32 0, %2
  %cmp2.i.i.i = icmp sgt i32 %2, 0
  %cmp5.not.i.i.i = icmp sgt i32 %iter.val.val.i, %sub.i.i.i
  %sub8.i.i.i = sub nsw i32 0, %iter.val.val.i
  %spec.select.i.i.i = select i1 %cmp5.not.i.i.i, i32 0, i32 %sub8.i.i.i
  %adjustment.0.i.i.i = select i1 %cmp2.i.i.i, i32 %iter.val.val.i, i32 %spec.select.i.i.i
  %add.i.i.i19 = sub i32 %adjustment.0.i.i.i, %2
  %3 = sext i32 %add.i.i.i19 to i64
  br label %while.body.lr.ph.i

while.body.lr.ph.i:                               ; preds = %if.end.i.i.i, %if.end.i18
  %retval.0.i.i.i = phi i64 [ %3, %if.end.i.i.i ], [ 0, %if.end.i18 ]
  %4 = getelementptr i8, ptr %h, i64 96
  %h.val.i.i = load ptr, ptr %4, align 8
  %arrayidx.i.i.i = getelementptr inbounds i64, ptr %h.val.i.i, i64 %retval.0.i.i.i
  %5 = load i64, ptr %arrayidx.i.i.i, align 8
  store i64 %5, ptr %count.i.i, align 8
  %cumulative_count.i = getelementptr inbounds i8, ptr %iter.i, i64 32
  store i64 %5, ptr %cumulative_count.i, align 8
  %sub_bucket_half_count_magnitude.i.i = getelementptr inbounds i8, ptr %h, i64 24
  %6 = load i32, ptr %sub_bucket_half_count_magnitude.i.i, align 8
  %sub_bucket_mask.i.i = getelementptr inbounds i8, ptr %h, i64 32
  %7 = load i64, ptr %sub_bucket_mask.i.i, align 8
  %8 = tail call i64 @llvm.ctlz.i64(i64 %7, i1 true), !range !5
  %cast.i.i.i = trunc i64 %8 to i32
  %9 = getelementptr i8, ptr %h, i64 40
  %.val27.i = load i32, ptr %9, align 8
  %cmp.not.i.i28 = icmp slt i32 %.val27.i, 1
  %add.i38.i = zext i1 %cmp.not.i.i28 to i32
  %10 = add i32 %6, %cast.i.i.i
  %reass.sub38 = sub i32 %add.i38.i, %10
  %add1.i.i = add i32 %reass.sub38, 63
  %sh_prom.i39.i = zext nneg i32 %add1.i.i to i64
  %shl.i.i29 = shl nuw i64 1, %sh_prom.i39.i
  %lowest_equivalent_value.i = getelementptr inbounds i8, ptr %iter.i, i64 56
  store i64 0, ptr %lowest_equivalent_value.i, align 8
  %value15.i = getelementptr inbounds i8, ptr %iter.i, i64 40
  store i64 0, ptr %value15.i, align 8
  %sub.i = add i64 %shl.i.i29, -1
  %highest_equivalent_value.i = getelementptr inbounds i8, ptr %iter.i, i64 48
  store i64 %sub.i, ptr %highest_equivalent_value.i, align 8
  %shr.i30 = ashr i64 %shl.i.i29, 1
  %median_equivalent_value.i = getelementptr inbounds i8, ptr %iter.i, i64 64
  store i64 %shr.i30, ptr %median_equivalent_value.i, align 8
  call void @llvm.memset.p0.i64(ptr noundef nonnull align 8 dereferenceable(16) %value_iterated_from.i.i, i8 0, i64 16, i1 false)
  br label %while.body.i

while.body.i:                                     ; preds = %if.end.i, %while.body.lr.ph.i
  %total.07.i = phi i64 [ 0, %while.body.lr.ph.i ], [ %total.1.i, %if.end.i ]
  %11 = load i64, ptr %count.i.i, align 8
  %cmp.not.i = icmp eq i64 %11, 0
  br i1 %cmp.not.i, label %if.end.i, label %if.then.i

if.then.i:                                        ; preds = %while.body.i
  %12 = load i64, ptr %value15.i, align 8
  %13 = load i64, ptr %sub_bucket_mask.i.i, align 8
  %or.i.i.i.i = or i64 %13, %12
  %14 = call i64 @llvm.ctlz.i64(i64 %or.i.i.i.i, i1 true), !range !5
  %cast.i.i.i.i.i = trunc i64 %14 to i32
  %15 = load i32, ptr %sub_bucket_half_count_magnitude.i.i, align 8
  %16 = add i32 %15, %cast.i.i.i.i.i
  %add.i.i.i.i = sub i32 63, %16
  %sh_prom.i.i.i.i = zext nneg i32 %add.i.i.i.i to i64
  %shr.i.i.i.i = ashr i64 %12, %sh_prom.i.i.i.i
  %sext.i.i.i = shl i64 %shr.i.i.i.i, 32
  %conv.i5.i.i.i = ashr exact i64 %sext.i.i.i, 32
  %shl.i.i.i.i = shl i64 %conv.i5.i.i.i, %sh_prom.i.i.i.i
  %conv.i.i.i.i = trunc i64 %shr.i.i.i.i to i32
  %17 = load i32, ptr %9, align 8
  %cmp.not.i.i.i = icmp sle i32 %17, %conv.i.i.i.i
  %add.i.i.i = zext i1 %cmp.not.i.i.i to i32
  %add3.i.i.i = add i32 %add.i.i.i.i, %add.i.i.i
  %sh_prom.i.i.i = zext nneg i32 %add3.i.i.i to i64
  %shl.i.i.i = shl nuw i64 1, %sh_prom.i.i.i
  %shr.i.i = ashr i64 %shl.i.i.i, 1
  %add.i.i = add nsw i64 %shr.i.i, %shl.i.i.i.i
  %mul.i = mul nsw i64 %add.i.i, %11
  %add.i = add nsw i64 %mul.i, %total.07.i
  br label %if.end.i

if.end.i:                                         ; preds = %if.then.i, %while.body.i
  %total.1.i = phi i64 [ %add.i, %if.then.i ], [ %total.07.i, %while.body.i ]
  %18 = load ptr, ptr %_next_fp.i.i, align 8
  %call.i.i = call zeroext i1 %18(ptr noundef nonnull %iter.i) #21
  br i1 %call.i.i, label %while.body.i, label %while.end.loopexit.i

while.end.loopexit.i:                             ; preds = %if.end.i
  %.pre.i = load i64, ptr %total_count.i.i, align 8
  %19 = sitofp i64 %total.1.i to double
  br label %hdr_mean.exit

hdr_mean.exit:                                    ; preds = %entry, %while.end.loopexit.i
  %20 = phi i64 [ %.pre.i, %while.end.loopexit.i ], [ %0, %entry ]
  %total.0.lcssa.i = phi double [ %19, %while.end.loopexit.i ], [ 0.000000e+00, %entry ]
  %conv4.i = sitofp i64 %20 to double
  %div.i = fdiv double %total.0.lcssa.i, %conv4.i
  call void @llvm.lifetime.end.p0(i64 128, ptr nonnull %iter.i)
  store ptr %h, ptr %iter, align 8
  %counts_index.i = getelementptr inbounds i8, ptr %iter, i64 8
  store i32 -1, ptr %counts_index.i, align 8
  %total_count2.i = getelementptr inbounds i8, ptr %iter, i64 16
  store i64 %20, ptr %total_count2.i, align 8
  %count.i = getelementptr inbounds i8, ptr %iter, i64 24
  %value_iterated_from.i = getelementptr inbounds i8, ptr %iter, i64 72
  %_next_fp.i = getelementptr inbounds i8, ptr %iter, i64 120
  call void @llvm.memset.p0.i64(ptr noundef nonnull align 8 dereferenceable(32) %count.i, i8 0, i64 32, i1 false)
  call void @llvm.memset.p0.i64(ptr noundef nonnull align 8 dereferenceable(16) %value_iterated_from.i, i8 0, i64 16, i1 false)
  store ptr @all_values_iter_next, ptr %_next_fp.i, align 8
  %call.i36 = call zeroext i1 @all_values_iter_next(ptr noundef nonnull %iter) #21
  br i1 %call.i36, label %while.body.lr.ph, label %while.end

while.body.lr.ph:                                 ; preds = %hdr_mean.exit
  %value = getelementptr inbounds i8, ptr %iter, i64 40
  %sub_bucket_mask.i.i.i = getelementptr inbounds i8, ptr %h, i64 32
  %sub_bucket_half_count_magnitude.i.i.i = getelementptr inbounds i8, ptr %h, i64 24
  %sub_bucket_count.i.i = getelementptr inbounds i8, ptr %h, i64 40
  br label %while.body

while.body:                                       ; preds = %while.body.lr.ph, %if.end
  %geometric_dev_total.037 = phi double [ 0.000000e+00, %while.body.lr.ph ], [ %geometric_dev_total.1, %if.end ]
  %21 = load i64, ptr %count.i, align 8
  %cmp.not = icmp eq i64 %21, 0
  br i1 %cmp.not, label %if.end, label %if.then

if.then:                                          ; preds = %while.body
  %22 = load i64, ptr %value, align 8
  %23 = load i64, ptr %sub_bucket_mask.i.i.i, align 8
  %or.i.i.i = or i64 %23, %22
  %24 = call i64 @llvm.ctlz.i64(i64 %or.i.i.i, i1 true), !range !5
  %cast.i.i.i.i = trunc i64 %24 to i32
  %25 = load i32, ptr %sub_bucket_half_count_magnitude.i.i.i, align 8
  %26 = add i32 %25, %cast.i.i.i.i
  %add.i.i.i7 = sub i32 63, %26
  %sh_prom.i.i.i8 = zext nneg i32 %add.i.i.i7 to i64
  %shr.i.i.i = ashr i64 %22, %sh_prom.i.i.i8
  %sext.i.i = shl i64 %shr.i.i.i, 32
  %conv.i5.i.i = ashr exact i64 %sext.i.i, 32
  %shl.i.i.i9 = shl i64 %conv.i5.i.i, %sh_prom.i.i.i8
  %conv.i.i.i = trunc i64 %shr.i.i.i to i32
  %27 = load i32, ptr %sub_bucket_count.i.i, align 8
  %cmp.not.i.i = icmp sle i32 %27, %conv.i.i.i
  %add.i.i10 = zext i1 %cmp.not.i.i to i32
  %add3.i.i = add i32 %add.i.i.i7, %add.i.i10
  %sh_prom.i.i = zext nneg i32 %add3.i.i to i64
  %shl.i.i = shl nuw i64 1, %sh_prom.i.i
  %shr.i = ashr i64 %shl.i.i, 1
  %add.i11 = add nsw i64 %shr.i, %shl.i.i.i9
  %conv = sitofp i64 %add.i11 to double
  %28 = fsub double %conv, %div.i
  %mul = fmul double %28, %28
  %conv4 = sitofp i64 %21 to double
  %29 = call double @llvm.fmuladd.f64(double %mul, double %conv4, double %geometric_dev_total.037)
  br label %if.end

if.end:                                           ; preds = %if.then, %while.body
  %geometric_dev_total.1 = phi double [ %29, %if.then ], [ %geometric_dev_total.037, %while.body ]
  %30 = load ptr, ptr %_next_fp.i, align 8
  %call.i = call zeroext i1 %30(ptr noundef nonnull %iter) #21
  br i1 %call.i, label %while.body, label %while.end.loopexit

while.end.loopexit:                               ; preds = %if.end
  %.pre = load i64, ptr %total_count.i.i, align 8
  %.pre39 = sitofp i64 %.pre to double
  br label %while.end

while.end:                                        ; preds = %while.end.loopexit, %hdr_mean.exit
  %conv6.pre-phi = phi double [ %.pre39, %while.end.loopexit ], [ %conv4.i, %hdr_mean.exit ]
  %geometric_dev_total.0.lcssa = phi double [ %geometric_dev_total.1, %while.end.loopexit ], [ 0.000000e+00, %hdr_mean.exit ]
  %div = fdiv double %geometric_dev_total.0.lcssa, %conv6.pre-phi
  %call7 = call double @sqrt(double noundef %div) #21
  ret double %call7
}